; Function Attrs: nounwind uwtable
define internal fastcc i32 @bio_write_intern(ptr noundef %0, ptr noundef %1, i64 noundef %2, ptr noundef writeonly captures(address_is_null) %3) unnamed_addr #0 {
  %5 = alloca i64, align 8
  call void @llvm.lifetime.start.p0(i64 8, ptr nonnull %5) #14
  %.not = icmp eq ptr %3, null
  br i1 %.not, label %7, label %6

6:                                                ; preds = %4
  store i64 0, ptr %3, align 8, !tbaa !32
  br label %7

7:                                                ; preds = %6, %4
  %8 = icmp eq ptr %0, null
  br i1 %8, label %bio_call_callback.exit.thread, label %9

9:                                                ; preds = %7
  %10 = getelementptr inbounds nuw i8, ptr %0, i64 8
  %11 = load ptr, ptr %10, align 8, !tbaa !17
  %12 = icmp eq ptr %11, null
  br i1 %12, label %17, label %13

13:                                               ; preds = %9
  %14 = getelementptr inbounds nuw i8, ptr %11, i64 16
  %15 = load ptr, ptr %14, align 8, !tbaa !34
  %16 = icmp eq ptr %15, null
  br i1 %16, label %17, label %18

17:                                               ; preds = %13, %9
  tail call void @ERR_new() #14
  tail call void @ERR_set_debug(ptr noundef nonnull @.str, i32 noundef 342, ptr noundef nonnull @__func__.bio_write_intern) #14
  tail call void (i32, i32, ptr, ...) @ERR_set_error(i32 noundef 32, i32 noundef 121, ptr noundef null) #14
  br label %bio_call_callback.exit.thread

18:                                               ; preds = %13
  %19 = getelementptr inbounds nuw i8, ptr %0, i64 16
  %20 = load ptr, ptr %19, align 8, !tbaa !23
  %.not32 = icmp eq ptr %20, null
  %21 = getelementptr inbounds nuw i8, ptr %0, i64 24
  %22 = load ptr, ptr %21, align 8, !tbaa !24
  %.not33 = icmp eq ptr %22, null
  br i1 %.not32, label %23, label %24

23:                                               ; preds = %18
  br i1 %.not33, label %33, label %.thread

24:                                               ; preds = %18
  br i1 %.not33, label %26, label %.thread

.thread:                                          ; preds = %23, %24
  %25 = tail call i64 %22(ptr noundef nonnull %0, i32 noundef 3, ptr noundef %1, i64 noundef %2, i32 noundef 0, i64 noundef 0, i32 noundef 1, ptr noundef null) #14
  br label %bio_call_callback.exit

26:                                               ; preds = %24
  %27 = icmp ugt i64 %2, 2147483647
  br i1 %27, label %bio_call_callback.exit.thread, label %28

28:                                               ; preds = %26
  %29 = trunc nuw nsw i64 %2 to i32
  %30 = tail call i64 %20(ptr noundef nonnull %0, i32 noundef 3, ptr noundef %1, i32 noundef %29, i64 noundef 0, i64 noundef 1) #14
  br label %bio_call_callback.exit

bio_call_callback.exit:                           ; preds = %28, %.thread
  %.0.i = phi i64 [ %25, %.thread ], [ %30, %28 ]
  %31 = trunc i64 %.0.i to i32
  %32 = icmp slt i32 %31, 1
  br i1 %32, label %bio_call_callback.exit.thread, label %33

33:                                               ; preds = %bio_call_callback.exit, %23
  %34 = getelementptr inbounds nuw i8, ptr %0, i64 40
  %35 = load i32, ptr %34, align 8, !tbaa !22
  %.not34 = icmp eq i32 %35, 0
  br i1 %.not34, label %36, label %37

36:                                               ; preds = %33
  tail call void @ERR_new() #14
  tail call void @ERR_set_debug(ptr noundef nonnull @.str, i32 noundef 352, ptr noundef nonnull @__func__.bio_write_intern) #14
  tail call void (i32, i32, ptr, ...) @ERR_set_error(i32 noundef 32, i32 noundef 120, ptr noundef null) #14
  br label %bio_call_callback.exit.thread

37:                                               ; preds = %33
  %38 = load ptr, ptr %10, align 8, !tbaa !17
  %39 = getelementptr inbounds nuw i8, ptr %38, i64 16
  %40 = load ptr, ptr %39, align 8, !tbaa !34
  %41 = call i32 %40(ptr noundef nonnull %0, ptr noundef %1, i64 noundef %2, ptr noundef nonnull %5) #14
  %42 = icmp sgt i32 %41, 0
  br i1 %42, label %43, label %48

43:                                               ; preds = %37
  %44 = load i64, ptr %5, align 8, !tbaa !32
  %45 = getelementptr inbounds nuw i8, ptr %0, i64 104
  %46 = load i64, ptr %45, align 8, !tbaa !35
  %47 = add i64 %46, %44
  store i64 %47, ptr %45, align 8, !tbaa !35
  br label %48

48:                                               ; preds = %43, %37
  %49 = load ptr, ptr %19, align 8, !tbaa !23
  %.not35 = icmp eq ptr %49, null
  %50 = getelementptr inbounds nuw i8, ptr %0, i64 24
  %51 = load ptr, ptr %50, align 8, !tbaa !24
  br i1 %.not35, label %52, label %53

52:                                               ; preds = %48
  %.not36 = icmp eq ptr %51, null
  br i1 %.not36, label %68, label %.thread45

53:                                               ; preds = %48
  %54 = sext i32 %41 to i64
  %.not.i37 = icmp eq ptr %51, null
  br i1 %.not.i37, label %56, label %.thread45

.thread45:                                        ; preds = %52, %53
  %55 = call i64 %51(ptr noundef nonnull %0, i32 noundef 131, ptr noundef %1, i64 noundef %2, i32 noundef 0, i64 noundef 0, i32 noundef %41, ptr noundef nonnull %5) #14
  br label %bio_call_callback.exit39

56:                                               ; preds = %53
  %57 = icmp ugt i64 %2, 2147483647
  br i1 %57, label %bio_call_callback.exit39, label %58

58:                                               ; preds = %56
  %59 = trunc nuw nsw i64 %2 to i32
  br i1 %42, label %60, label %63

60:                                               ; preds = %58
  %61 = load i64, ptr %5, align 8, !tbaa !32
  %62 = icmp ugt i64 %61, 2147483647
  br i1 %62, label %bio_call_callback.exit39, label %63

63:                                               ; preds = %60, %58
  %.044.i = phi i64 [ %54, %58 ], [ %61, %60 ]
  %64 = call i64 %49(ptr noundef nonnull %0, i32 noundef 131, ptr noundef %1, i32 noundef %59, i64 noundef 0, i64 noundef %.044.i) #14
  %65 = icmp sgt i64 %64, 0
  br i1 %65, label %66, label %bio_call_callback.exit39

66:                                               ; preds = %63
  store i64 %64, ptr %5, align 8, !tbaa !32
  br label %bio_call_callback.exit39

bio_call_callback.exit39:                         ; preds = %.thread45, %56, %60, %63, %66
  %.0.i38 = phi i64 [ %55, %.thread45 ], [ -1, %56 ], [ -1, %60 ], [ 1, %66 ], [ %64, %63 ]
  %67 = trunc i64 %.0.i38 to i32
  br label %68

68:                                               ; preds = %bio_call_callback.exit39, %52
  %.0 = phi i32 [ %67, %bio_call_callback.exit39 ], [ %41, %52 ]
  br i1 %.not, label %bio_call_callback.exit.thread, label %69

69:                                               ; preds = %68
  %70 = load i64, ptr %5, align 8, !tbaa !32
  store i64 %70, ptr %3, align 8, !tbaa !32
  br label %bio_call_callback.exit.thread

bio_call_callback.exit.thread:                    ; preds = %26, %68, %69, %bio_call_callback.exit, %7, %36, %17
  %.027 = phi i32 [ -2, %17 ], [ -1, %36 ], [ 0, %7 ], [ %31, %bio_call_callback.exit ], [ %.0, %69 ], [ %.0, %68 ], [ -1, %26 ]
  call void @llvm.lifetime.end.p0(i64 8, ptr nonnull %5) #14
  ret i32 %.027
}